; Function Attrs: nounwind uwtable
define hidden i32 @_mi_prim_free(ptr noundef %0, i64 noundef %1) local_unnamed_addr #0 {
  %3 = tail call i32 @munmap(ptr noundef %0, i64 noundef %1) #10
  %4 = icmp eq i32 %3, -1
  br i1 %4, label %5, label %8

5:                                                ; preds = %2
  %6 = tail call ptr @__errno_location() #12
  %7 = load i32, ptr %6, align 4, !tbaa !15
  br label %8

8:                                                ; preds = %2, %5
  %9 = phi i32 [ %7, %5 ], [ 0, %2 ]
  ret i32 %9
}